; Function Attrs: uwtable
define noundef i32 @_ZTv0_n56_N15colvarbias_meta16clear_state_dataEv(ptr noundef %0) unnamed_addr #3 align 2 personality ptr @__gxx_personality_v0 {
  %2 = load ptr, ptr %0, align 8
  %3 = getelementptr inbounds i8, ptr %2, i64 -56
  %4 = load i64, ptr %3, align 8
  %5 = getelementptr inbounds i8, ptr %0, i64 %4
  %6 = getelementptr inbounds i8, ptr %5, i64 200
  %7 = load ptr, ptr %6, align 8
  %.not.i = icmp eq ptr %7, null
  br i1 %.not.i, label %12, label %8

8:                                                ; preds = %1
  %9 = load ptr, ptr %7, align 8
  %10 = getelementptr inbounds i8, ptr %9, i64 56
  %11 = load ptr, ptr %10, align 8
  tail call void %11(ptr noundef nonnull align 8 dereferenceable(712) %7) #22
  store ptr null, ptr %6, align 8
  br label %12

12:                                               ; preds = %8, %1
  %13 = getelementptr inbounds i8, ptr %5, i64 208
  %14 = load ptr, ptr %13, align 8
  %.not2.i = icmp eq ptr %14, null
  br i1 %.not2.i, label %19, label %15

15:                                               ; preds = %12
  %16 = load ptr, ptr %14, align 8
  %17 = getelementptr inbounds i8, ptr %16, i64 56
  %18 = load ptr, ptr %17, align 8
  tail call void %18(ptr noundef nonnull align 8 dereferenceable(720) %14) #22
  store ptr null, ptr %13, align 8
  br label %19

19:                                               ; preds = %15, %12
  %20 = getelementptr inbounds i8, ptr %5, i64 64
  %21 = load ptr, ptr %20, align 8
  %.not8.i.i.i = icmp eq ptr %21, %20
  br i1 %.not8.i.i.i, label %_ZNSt7__cxx114listIN15colvarbias_meta4hillESaIS2_EE5clearEv.exit.i, label %.lr.ph.i.i.i

.lr.ph.i.i.i:                                     ; preds = %19, %.lr.ph.i.i.i
  %.09.i.i.i = phi ptr [ %22, %.lr.ph.i.i.i ], [ %21, %19 ]
  %22 = load ptr, ptr %.09.i.i.i, align 8
  %23 = getelementptr inbounds i8, ptr %.09.i.i.i, i64 16
  tail call void @_ZN15colvarbias_meta4hillD1Ev(ptr noundef nonnull align 8 dereferenceable(112) %23) #22
  tail call void @_ZdlPv(ptr noundef %.09.i.i.i) #23
  %.not.i.i.i = icmp eq ptr %22, %20
  br i1 %.not.i.i.i, label %_ZNSt7__cxx114listIN15colvarbias_meta4hillESaIS2_EE5clearEv.exit.i, label %.lr.ph.i.i.i, !llvm.loop !17

_ZNSt7__cxx114listIN15colvarbias_meta4hillESaIS2_EE5clearEv.exit.i: ; preds = %.lr.ph.i.i.i, %19
  %24 = getelementptr inbounds i8, ptr %5, i64 72
  store ptr %20, ptr %24, align 8
  store ptr %20, ptr %20, align 8
  %25 = getelementptr inbounds i8, ptr %5, i64 80
  store i64 0, ptr %25, align 8
  %26 = getelementptr inbounds i8, ptr %5, i64 96
  %27 = load ptr, ptr %26, align 8
  %.not8.i.i3.i = icmp eq ptr %27, %26
  br i1 %.not8.i.i3.i, label %_ZN15colvarbias_meta16clear_state_dataEv.exit, label %.lr.ph.i.i4.i

.lr.ph.i.i4.i:                                    ; preds = %_ZNSt7__cxx114listIN15colvarbias_meta4hillESaIS2_EE5clearEv.exit.i, %.lr.ph.i.i4.i
  %.09.i.i5.i = phi ptr [ %28, %.lr.ph.i.i4.i ], [ %27, %_ZNSt7__cxx114listIN15colvarbias_meta4hillESaIS2_EE5clearEv.exit.i ]
  %28 = load ptr, ptr %.09.i.i5.i, align 8
  %29 = getelementptr inbounds i8, ptr %.09.i.i5.i, i64 16
  tail call void @_ZN15colvarbias_meta4hillD1Ev(ptr noundef nonnull align 8 dereferenceable(112) %29) #22
  tail call void @_ZdlPv(ptr noundef %.09.i.i5.i) #23
  %.not.i.i6.i = icmp eq ptr %28, %26
  br i1 %.not.i.i6.i, label %_ZN15colvarbias_meta16clear_state_dataEv.exit, label %.lr.ph.i.i4.i, !llvm.loop !17

_ZN15colvarbias_meta16clear_state_dataEv.exit:    ; preds = %.lr.ph.i.i4.i, %_ZNSt7__cxx114listIN15colvarbias_meta4hillESaIS2_EE5clearEv.exit.i
  %30 = getelementptr inbounds i8, ptr %5, i64 104
  store ptr %26, ptr %30, align 8
  store ptr %26, ptr %26, align 8
  %31 = getelementptr inbounds i8, ptr %5, i64 112
  store i64 0, ptr %31, align 8
  ret i32 0
}